target datalayout = "e-m:e-p270:32:32-p271:32:32-p272:64:64-i64:64-i128:128-f80:128-n8:16:32:64-S128"
target triple = "x86_64-pc-linux-gnu"

; Function Attrs: mustprogress uwtable
define internal noundef i32 @_ZN12_GLOBAL__N_19NinjaMain13ToolRecompactEPKNS_7OptionsEiPPc(ptr noundef nonnull align 8 dereferenceable(536) %0, ptr noundef %1, i32 noundef %2, ptr noundef %3) #2 align 2 {
  %5 = alloca i32, align 4
  %6 = alloca ptr, align 8
  %7 = alloca ptr, align 8
  %8 = alloca i32, align 4
  %9 = alloca ptr, align 8
  store ptr %0, ptr %6, align 8
  store ptr %1, ptr %7, align 8
  store i32 %2, ptr %8, align 4
  store ptr %3, ptr %9, align 8
  %10 = load ptr, ptr %6, align 8
  %11 = call noundef zeroext i1 @_ZN12_GLOBAL__N_19NinjaMain20EnsureBuildDirExistsEv(ptr noundef nonnull align 8 dereferenceable(536) %10)
  br i1 %11, label %13, label %12

12:                                               ; preds = %4
  store i32 1, ptr %5, align 4
  br label %19

13:                                               ; preds = %4
  %14 = call noundef zeroext i1 @_ZN12_GLOBAL__N_19NinjaMain12OpenBuildLogEb(ptr noundef nonnull align 8 dereferenceable(536) %10, i1 noundef zeroext true)
  br i1 %14, label %15, label %17

15:                                               ; preds = %13
  %16 = call noundef zeroext i1 @_ZN12_GLOBAL__N_19NinjaMain11OpenDepsLogEb(ptr noundef nonnull align 8 dereferenceable(536) %10, i1 noundef zeroext true)
  br i1 %16, label %18, label %17

17:                                               ; preds = %15, %13
  store i32 1, ptr %5, align 4
  br label %19

18:                                               ; preds = %15
  store i32 0, ptr %5, align 4
  br label %19

19:                                               ; preds = %18, %17, %12
  %20 = load i32, ptr %5, align 4
  ret i32 %20
}