; Function Attrs: mustprogress uwtable
define internal noundef i32 @_ZN12_GLOBAL__N_19NinjaMain13ToolRecompactEPKNS_7OptionsEiPPc(ptr noundef nonnull align 8 dereferenceable(536) %0, ptr nocapture readnone %1, i32 %2, ptr nocapture readnone %3) #12 align 2 {
  %5 = tail call fastcc noundef zeroext i1 @_ZN12_GLOBAL__N_19NinjaMain20EnsureBuildDirExistsEv(ptr noundef nonnull align 8 dereferenceable(536) %0)
  br i1 %5, label %6, label %10

6:                                                ; preds = %4
  %7 = tail call fastcc noundef zeroext i1 @_ZN12_GLOBAL__N_19NinjaMain12OpenBuildLogEb(ptr noundef nonnull align 8 dereferenceable(536) %0, i1 noundef zeroext true)
  br i1 %7, label %8, label %10

8:                                                ; preds = %6
  %9 = tail call fastcc noundef zeroext i1 @_ZN12_GLOBAL__N_19NinjaMain11OpenDepsLogEb(ptr noundef nonnull align 8 dereferenceable(536) %0, i1 noundef zeroext true)
  %not. = xor i1 %9, true
  %spec.select = zext i1 %not. to i32
  br label %10

10:                                               ; preds = %8, %6, %4
  %.0 = phi i32 [ 1, %4 ], [ 1, %6 ], [ %spec.select, %8 ]
  ret i32 %.0
}